target datalayout = "e-m:e-p270:32:32-p271:32:32-p272:64:64-i64:64-i128:128-f80:128-n8:16:32:64-S128"
target triple = "x86_64-pc-linux-gnu"

; Function Attrs: inlinehint mustprogress nounwind uwtable
define linkonce_odr void @_ZSt4swapIhENSt9enable_ifIXsr6__and_ISt6__not_ISt15__is_tuple_likeIT_EESt21is_move_constructibleIS3_ESt18is_move_assignableIS3_EEE5valueEvE4typeERS3_SC_(ptr noundef nonnull align 1 dereferenceable(1) %0, ptr noundef nonnull align 1 dereferenceable(1) %1) #6 comdat {
  %3 = alloca ptr, align 8
  %4 = alloca ptr, align 8
  %5 = alloca i8, align 1
  store ptr %0, ptr %3, align 8, !tbaa !28
  store ptr %1, ptr %4, align 8, !tbaa !28
  call void @llvm.lifetime.start.p0(i64 1, ptr %5) #15
  %6 = load ptr, ptr %3, align 8, !tbaa !28
  %7 = load i8, ptr %6, align 1, !tbaa !79
  store i8 %7, ptr %5, align 1, !tbaa !79
  %8 = load ptr, ptr %4, align 8, !tbaa !28
  %9 = load i8, ptr %8, align 1, !tbaa !79
  %10 = load ptr, ptr %3, align 8, !tbaa !28
  store i8 %9, ptr %10, align 1, !tbaa !79
  %11 = load i8, ptr %5, align 1, !tbaa !79
  %12 = load ptr, ptr %4, align 8, !tbaa !28
  store i8 %11, ptr %12, align 1, !tbaa !79
  call void @llvm.lifetime.end.p0(i64 1, ptr %5) #15
  ret void
}

; Function Attrs: mustprogress nounwind uwtable
define internal void @_ZN2cvL11transposeI_IhEEvPhmi(ptr noundef %0, i64 noundef %1, i32 noundef %2) #4 {
  %4 = alloca ptr, align 8
  %5 = alloca i64, align 8
  %6 = alloca i32, align 4
  %7 = alloca i32, align 4
  %8 = alloca i32, align 4
  %9 = alloca ptr, align 8
  %10 = alloca ptr, align 8
  %11 = alloca i32, align 4
  store ptr %0, ptr %4, align 8, !tbaa !28
  store i64 %1, ptr %5, align 8, !tbaa !42
  store i32 %2, ptr %6, align 4, !tbaa !10
  call void @llvm.lifetime.start.p0(i64 4, ptr %7) #15
  store i32 0, ptr %7, align 4, !tbaa !10
  br label %12

12:                                               ; preds = %51, %3
  %13 = load i32, ptr %7, align 4, !tbaa !10
  %14 = load i32, ptr %6, align 4, !tbaa !10
  %15 = icmp slt i32 %13, %14
  br i1 %15, label %17, label %16

16:                                               ; preds = %12
  store i32 2, ptr %8, align 4
  call void @llvm.lifetime.end.p0(i64 4, ptr %7) #15
  br label %54

17:                                               ; preds = %12
  call void @llvm.lifetime.start.p0(i64 8, ptr %9) #15
  %18 = load ptr, ptr %4, align 8, !tbaa !28
  %19 = load i64, ptr %5, align 8, !tbaa !42
  %20 = load i32, ptr %7, align 4, !tbaa !10
  %21 = sext i32 %20 to i64
  %22 = mul i64 %19, %21
  %23 = getelementptr inbounds nuw i8, ptr %18, i64 %22
  store ptr %23, ptr %9, align 8, !tbaa !28
  call void @llvm.lifetime.start.p0(i64 8, ptr %10) #15
  %24 = load ptr, ptr %4, align 8, !tbaa !28
  %25 = load i32, ptr %7, align 4, !tbaa !10
  %26 = sext i32 %25 to i64
  %27 = mul i64 %26, 1
  %28 = getelementptr inbounds nuw i8, ptr %24, i64 %27
  store ptr %28, ptr %10, align 8, !tbaa !28
  call void @llvm.lifetime.start.p0(i64 4, ptr %11) #15
  %29 = load i32, ptr %7, align 4, !tbaa !10
  %30 = add nsw i32 %29, 1
  store i32 %30, ptr %11, align 4, !tbaa !10
  br label %31

31:                                               ; preds = %47, %17
  %32 = load i32, ptr %11, align 4, !tbaa !10
  %33 = load i32, ptr %6, align 4, !tbaa !10
  %34 = icmp slt i32 %32, %33
  br i1 %34, label %36, label %35

35:                                               ; preds = %31
  store i32 5, ptr %8, align 4
  call void @llvm.lifetime.end.p0(i64 4, ptr %11) #15
  br label %50

36:                                               ; preds = %31
  %37 = load ptr, ptr %9, align 8, !tbaa !28
  %38 = load i32, ptr %11, align 4, !tbaa !10
  %39 = sext i32 %38 to i64
  %40 = getelementptr inbounds i8, ptr %37, i64 %39
  %41 = load ptr, ptr %10, align 8, !tbaa !28
  %42 = load i64, ptr %5, align 8, !tbaa !42
  %43 = load i32, ptr %11, align 4, !tbaa !10
  %44 = sext i32 %43 to i64
  %45 = mul i64 %42, %44
  %46 = getelementptr inbounds nuw i8, ptr %41, i64 %45
  call void @_ZSt4swapIhENSt9enable_ifIXsr6__and_ISt6__not_ISt15__is_tuple_likeIT_EESt21is_move_constructibleIS3_ESt18is_move_assignableIS3_EEE5valueEvE4typeERS3_SC_(ptr noundef nonnull align 1 dereferenceable(1) %40, ptr noundef nonnull align 1 dereferenceable(1) %46) #15
  br label %47

47:                                               ; preds = %36
  %48 = load i32, ptr %11, align 4, !tbaa !10
  %49 = add nsw i32 %48, 1
  store i32 %49, ptr %11, align 4, !tbaa !10
  br label %31, !llvm.loop !157

50:                                               ; preds = %35
  call void @llvm.lifetime.end.p0(i64 8, ptr %10) #15
  call void @llvm.lifetime.end.p0(i64 8, ptr %9) #15
  br label %51

51:                                               ; preds = %50
  %52 = load i32, ptr %7, align 4, !tbaa !10
  %53 = add nsw i32 %52, 1
  store i32 %53, ptr %7, align 4, !tbaa !10
  br label %12, !llvm.loop !158

54:                                               ; preds = %16
  ret void
}

; Function Attrs: mustprogress uwtable
define internal void @_ZN2cvL13transposeI_8uEPhmi(ptr noundef %0, i64 noundef %1, i32 noundef %2) #0 {
  %4 = alloca ptr, align 8
  %5 = alloca i64, align 8
  %6 = alloca i32, align 4
  store ptr %0, ptr %4, align 8, !tbaa !28
  store i64 %1, ptr %5, align 8, !tbaa !42
  store i32 %2, ptr %6, align 4, !tbaa !10
  %7 = load ptr, ptr %4, align 8, !tbaa !28
  %8 = load i64, ptr %5, align 8, !tbaa !42
  %9 = load i32, ptr %6, align 4, !tbaa !10
  call void @_ZN2cvL11transposeI_IhEEvPhmi(ptr noundef %7, i64 noundef %8, i32 noundef %9)
  ret void
}